ARM GAS  C:\Users\Keshuai\AppData\Local\Temp\cckYIb6a.s 			page 1


   1              		.syntax unified
   2              		.cpu cortex-m3
   3              		.fpu softvfp
   4              		.eabi_attribute 20, 1
   5              		.eabi_attribute 21, 1
   6              		.eabi_attribute 23, 3
   7              		.eabi_attribute 24, 1
   8              		.eabi_attribute 25, 1
   9              		.eabi_attribute 26, 1
  10              		.eabi_attribute 30, 1
  11              		.eabi_attribute 34, 1
  12              		.eabi_attribute 18, 4
  13              		.thumb
  14              		.file	"main.c"
  15              		.text
  16              	.Ltext0:
  17              		.cfi_sections	.debug_frame
  18              		.global	__aeabi_fmul
  19              		.global	__aeabi_i2f
  20              		.global	__aeabi_fadd
  21              		.global	__aeabi_f2d
  22              		.global	__aeabi_dcmpgt
  23              		.section	.text.main,"ax",%progbits
  24              		.align	2
  25              		.global	main
  26              		.thumb
  27              		.thumb_func
  28              		.type	main, %function
  29              	main:
  30              	.LFB63:
  31              		.file 1 "main.c"
   1:main.c        **** /* ========================================
   2:main.c        ****  *
   3:main.c        ****  * Copyright YOUR COMPANY, THE YEAR
   4:main.c        ****  * All Rights Reserved
   5:main.c        ****  * UNPUBLISHED, LICENSED SOFTWARE.
   6:main.c        ****  *
   7:main.c        ****  * CONFIDENTIAL AND PROPRIETARY INFORMATION
   8:main.c        ****  * WHICH IS THE PROPERTY OF your company.
   9:main.c        ****  *
  10:main.c        ****  * ========================================
  11:main.c        **** */
  12:main.c        **** #include "project.h"
  13:main.c        **** #include "math.h"
  14:main.c        **** 
  15:main.c        **** static int8 Mouse_Data[3] = {0, 0, 0};
  16:main.c        **** static int32 last_count = 0;
  17:main.c        **** static uint8 clicked = 0;
  18:main.c        **** static float running_avg_vel = 0;
  19:main.c        **** const float weight = 0.2;
  20:main.c        **** 
  21:main.c        **** int main(void)
  22:main.c        **** {
  32              		.loc 1 22 0
  33              		.cfi_startproc
  34              		@ args = 0, pretend = 0, frame = 0
  35              		@ frame_needed = 0, uses_anonymous_args = 0
ARM GAS  C:\Users\Keshuai\AppData\Local\Temp\cckYIb6a.s 			page 2


  36 0000 70B5     		push	{r4, r5, r6, lr}
  37              		.cfi_def_cfa_offset 16
  38              		.cfi_offset 4, -16
  39              		.cfi_offset 5, -12
  40              		.cfi_offset 6, -8
  41              		.cfi_offset 14, -4
  23:main.c        ****     CyGlobalIntEnable; /* Enable global interrupts. */
  42              		.loc 1 23 0
  43              	@ 23 "main.c" 1
  44 0002 62B6     		CPSIE   i
  45              	@ 0 "" 2
  24:main.c        ****     QuadDec_1_Start();
  46              		.loc 1 24 0
  47              		.thumb
  48 0004 FFF7FEFF 		bl	QuadDec_1_Start
  49              	.LVL0:
  25:main.c        ****     
  26:main.c        ****     USBFS_1_Start(0, USBFS_1_DWR_VDDD_OPERATION);   /* Start USBFS Operation/device 0 and with 5V o
  50              		.loc 1 26 0
  51 0008 0020     		movs	r0, #0
  52 000a 0221     		movs	r1, #2
  53 000c FFF7FEFF 		bl	USBFS_1_Start
  54              	.LVL1:
  55              	.L2:
  27:main.c        **** 	while(!USBFS_1_bGetConfiguration());      		/* Wait for Device to enumerate */
  56              		.loc 1 27 0 discriminator 1
  57 0010 FFF7FEFF 		bl	USBFS_1_GetConfiguration
  58              	.LVL2:
  59 0014 0028     		cmp	r0, #0
  60 0016 FBD0     		beq	.L2
  28:main.c        ****     USBFS_1_LoadInEP(1, (uint8 *)Mouse_Data, 3); 	/* Loads an inital value into EP1 and sends it ou
  61              		.loc 1 28 0
  62 0018 234C     		ldr	r4, .L13+8
  63 001a 0120     		movs	r0, #1
  64 001c 2146     		mov	r1, r4
  65 001e 0322     		movs	r2, #3
  66 0020 FFF7FEFF 		bl	USBFS_1_LoadInEP
  67              	.LVL3:
  29:main.c        **** 
  30:main.c        ****     /* Place your initialization/startup code here (e.g. MyInst_Start()) */
  31:main.c        ****     
  32:main.c        ****     last_count = QuadDec_1_GetCounter();
  68              		.loc 1 32 0
  69 0024 FFF7FEFF 		bl	QuadDec_1_GetCounter
  70              	.LVL4:
  71 0028 6060     		str	r0, [r4, #4]
  72              	.L8:
  73              	.LBB2:
  33:main.c        **** 
  34:main.c        ****     for(;;)
  35:main.c        ****     {
  36:main.c        ****         int32 count = QuadDec_1_GetCounter();
  74              		.loc 1 36 0
  75 002a FFF7FEFF 		bl	QuadDec_1_GetCounter
  76              	.LVL5:
  37:main.c        ****         int32 delta = count - last_count;
  77              		.loc 1 37 0
ARM GAS  C:\Users\Keshuai\AppData\Local\Temp\cckYIb6a.s 			page 3


  78 002e 1E4C     		ldr	r4, .L13+8
  79 0030 6568     		ldr	r5, [r4, #4]
  80 0032 451B     		subs	r5, r0, r5
  81              	.LVL6:
  38:main.c        ****         last_count = count;
  82              		.loc 1 38 0
  83 0034 6060     		str	r0, [r4, #4]
  39:main.c        ****         Mouse_Data[1] = (int8) delta;
  84              		.loc 1 39 0
  85 0036 6570     		strb	r5, [r4, #1]
  40:main.c        ****         running_avg_vel = (1 - weight) * running_avg_vel + weight * (float) abs(delta);
  86              		.loc 1 40 0
  87 0038 A068     		ldr	r0, [r4, #8]	@ float
  88              	.LVL7:
  89 003a 1C49     		ldr	r1, .L13+12
  90 003c FFF7FEFF 		bl	__aeabi_fmul
  91              	.LVL8:
  92 0040 0646     		mov	r6, r0
  93 0042 85EAE570 		eor	r0, r5, r5, asr #31
  94 0046 A0EBE570 		sub	r0, r0, r5, asr #31
  95 004a FFF7FEFF 		bl	__aeabi_i2f
  96              	.LVL9:
  97 004e 1849     		ldr	r1, .L13+16
  98 0050 FFF7FEFF 		bl	__aeabi_fmul
  99              	.LVL10:
 100 0054 0146     		mov	r1, r0
 101 0056 3046     		mov	r0, r6
 102 0058 FFF7FEFF 		bl	__aeabi_fadd
 103              	.LVL11:
 104 005c A060     		str	r0, [r4, #8]	@ float
  41:main.c        ****         if (running_avg_vel > 0.00001)
 105              		.loc 1 41 0
 106 005e FFF7FEFF 		bl	__aeabi_f2d
 107              	.LVL12:
 108 0062 0FA3     		adr	r3, .L13
 109 0064 D3E90023 		ldrd	r2, [r3]
 110 0068 FFF7FEFF 		bl	__aeabi_dcmpgt
 111              	.LVL13:
 112 006c 10B1     		cbz	r0, .L11
  42:main.c        ****             clicked = 1;
 113              		.loc 1 42 0
 114 006e 0122     		movs	r2, #1
 115 0070 2273     		strb	r2, [r4, #12]
 116 0072 02E0     		b	.L5
 117              	.L11:
  43:main.c        ****         else
  44:main.c        ****             clicked = 0;
 118              		.loc 1 44 0
 119 0074 0022     		movs	r2, #0
 120 0076 0C4B     		ldr	r3, .L13+8
 121 0078 1A73     		strb	r2, [r3, #12]
 122              	.L5:
  45:main.c        **** 
  46:main.c        ****         
  47:main.c        ****         Mouse_Data[0] = clicked ? 0x02 : 0x00;
 123              		.loc 1 47 0
 124 007a 0B4B     		ldr	r3, .L13+8
ARM GAS  C:\Users\Keshuai\AppData\Local\Temp\cckYIb6a.s 			page 4


 125 007c 1B7B     		ldrb	r3, [r3, #12]	@ zero_extendqisi2
 126 007e 0BB1     		cbz	r3, .L9
 127 0080 0222     		movs	r2, #2
 128 0082 00E0     		b	.L6
 129              	.L9:
 130 0084 0022     		movs	r2, #0
 131              	.L6:
 132              		.loc 1 47 0 is_stmt 0 discriminator 4
 133 0086 084B     		ldr	r3, .L13+8
 134 0088 1A70     		strb	r2, [r3]
 135              	.L7:
  48:main.c        ****         while(!USBFS_1_bGetEPAckState(1));  			/* Wait for ACK before loading data */
 136              		.loc 1 48 0 is_stmt 1 discriminator 1
 137 008a 0120     		movs	r0, #1
 138 008c FFF7FEFF 		bl	USBFS_1_GetEPAckState
 139              	.LVL14:
 140 0090 0028     		cmp	r0, #0
 141 0092 FAD0     		beq	.L7
  49:main.c        **** 		USBFS_1_LoadInEP(1, (uint8 *)Mouse_Data, 3); 	/* Load latest mouse data into EP1 and send to PC *
 142              		.loc 1 49 0
 143 0094 0120     		movs	r0, #1
 144 0096 0449     		ldr	r1, .L13+8
 145 0098 0322     		movs	r2, #3
 146 009a FFF7FEFF 		bl	USBFS_1_LoadInEP
 147              	.LVL15:
 148              	.LBE2:
  50:main.c        ****         
  51:main.c        ****         
  52:main.c        ****     }
 149              		.loc 1 52 0
 150 009e C4E7     		b	.L8
 151              	.L14:
 152              		.align	3
 153              	.L13:
 154 00a0 F168E388 		.word	-1998362383
 155 00a4 B5F8E43E 		.word	1055193269
 156 00a8 00000000 		.word	.LANCHOR0
 157 00ac CDCC4C3F 		.word	1061997773
 158 00b0 CDCC4C3E 		.word	1045220557
 159              		.cfi_endproc
 160              	.LFE63:
 161              		.size	main, .-main
 162              		.global	weight
 163 00b4 AFF30080 		.section	.rodata
 164              		.align	2
 165              		.type	weight, %object
 166              		.size	weight, 4
 167              	weight:
 168 0000 CDCC4C3E 		.word	1045220557
 169              		.bss
 170              		.align	2
 171              		.set	.LANCHOR0,. + 0
 172              		.type	Mouse_Data, %object
 173              		.size	Mouse_Data, 3
 174              	Mouse_Data:
 175 0000 000000   		.space	3
 176 0003 00       		.space	1
ARM GAS  C:\Users\Keshuai\AppData\Local\Temp\cckYIb6a.s 			page 5


 177              		.type	last_count, %object
 178              		.size	last_count, 4
 179              	last_count:
 180 0004 00000000 		.space	4
 181              		.type	running_avg_vel, %object
 182              		.size	running_avg_vel, 4
 183              	running_avg_vel:
 184 0008 00000000 		.space	4
 185              		.type	clicked, %object
 186              		.size	clicked, 1
 187              	clicked:
 188 000c 00       		.space	1
 189 000d 000000   		.text
 190              	.Letext0:
 191              		.file 2 "c:\\program files (x86)\\cypress\\psoc creator\\4.0\\psoc creator\\import\\gnu\\arm\\4.9.
 192              		.file 3 "c:\\program files (x86)\\cypress\\psoc creator\\4.0\\psoc creator\\import\\gnu\\arm\\4.9.
 193              		.file 4 "Generated_Source\\PSoC5/cytypes.h"
 194              		.file 5 "Generated_Source\\PSoC5/core_cm3.h"
 195              		.file 6 "Generated_Source\\PSoC5/USBFS_1.h"
 196              		.file 7 "Generated_Source\\PSoC5/QuadDec_1.h"
 197              		.file 8 "<built-in>"